target datalayout = "e-m:e-p270:32:32-p271:32:32-p272:64:64-i64:64-i128:128-f80:128-n8:16:32:64-S128"
target triple = "x86_64-pc-linux-gnu"

%"struct.duckdb_zstd::ZSTD_outBuffer_s" = type { ptr, i64, i64 }
%"struct.duckdb_zstd::ZSTD_inBuffer_s" = type { ptr, i64, i64 }

; Function Attrs: mustprogress uwtable
define noundef i64 @_ZN11duckdb_zstd22ZBUFF_compressContinueEPNS_11ZSTD_CCtx_sEPvPmPKvS3_(ptr noundef %0, ptr noundef %1, ptr noundef %2, ptr noundef %3, ptr noundef %4) #0 {
  %6 = alloca ptr, align 8
  %7 = alloca ptr, align 8
  %8 = alloca ptr, align 8
  %9 = alloca ptr, align 8
  %10 = alloca ptr, align 8
  %11 = alloca i64, align 8
  %12 = alloca %"struct.duckdb_zstd::ZSTD_outBuffer_s", align 8
  %13 = alloca %"struct.duckdb_zstd::ZSTD_inBuffer_s", align 8
  store ptr %0, ptr %6, align 8, !tbaa !8
  store ptr %1, ptr %7, align 8, !tbaa !4
  store ptr %2, ptr %8, align 8, !tbaa !32
  store ptr %3, ptr %9, align 8, !tbaa !4
  store ptr %4, ptr %10, align 8, !tbaa !32
  call void @llvm.lifetime.start.p0(i64 8, ptr %11) #5
  call void @llvm.lifetime.start.p0(i64 24, ptr %12) #5
  call void @llvm.lifetime.start.p0(i64 24, ptr %13) #5
  %14 = load ptr, ptr %7, align 8, !tbaa !4
  %15 = getelementptr inbounds nuw %"struct.duckdb_zstd::ZSTD_outBuffer_s", ptr %12, i32 0, i32 0
  store ptr %14, ptr %15, align 8, !tbaa !34
  %16 = getelementptr inbounds nuw %"struct.duckdb_zstd::ZSTD_outBuffer_s", ptr %12, i32 0, i32 2
  store i64 0, ptr %16, align 8, !tbaa !36
  %17 = load ptr, ptr %8, align 8, !tbaa !32
  %18 = load i64, ptr %17, align 8, !tbaa !10
  %19 = getelementptr inbounds nuw %"struct.duckdb_zstd::ZSTD_outBuffer_s", ptr %12, i32 0, i32 1
  store i64 %18, ptr %19, align 8, !tbaa !37
  %20 = load ptr, ptr %9, align 8, !tbaa !4
  %21 = getelementptr inbounds nuw %"struct.duckdb_zstd::ZSTD_inBuffer_s", ptr %13, i32 0, i32 0
  store ptr %20, ptr %21, align 8, !tbaa !38
  %22 = getelementptr inbounds nuw %"struct.duckdb_zstd::ZSTD_inBuffer_s", ptr %13, i32 0, i32 2
  store i64 0, ptr %22, align 8, !tbaa !40
  %23 = load ptr, ptr %10, align 8, !tbaa !32
  %24 = load i64, ptr %23, align 8, !tbaa !10
  %25 = getelementptr inbounds nuw %"struct.duckdb_zstd::ZSTD_inBuffer_s", ptr %13, i32 0, i32 1
  store i64 %24, ptr %25, align 8, !tbaa !41
  %26 = load ptr, ptr %6, align 8, !tbaa !8
  %27 = call noundef i64 @_ZN11duckdb_zstd19ZSTD_compressStreamEPNS_11ZSTD_CCtx_sEPNS_16ZSTD_outBuffer_sEPNS_15ZSTD_inBuffer_sE(ptr noundef %26, ptr noundef %12, ptr noundef %13)
  store i64 %27, ptr %11, align 8, !tbaa !10
  %28 = getelementptr inbounds nuw %"struct.duckdb_zstd::ZSTD_outBuffer_s", ptr %12, i32 0, i32 2
  %29 = load i64, ptr %28, align 8, !tbaa !36
  %30 = load ptr, ptr %8, align 8, !tbaa !32
  store i64 %29, ptr %30, align 8, !tbaa !10
  %31 = getelementptr inbounds nuw %"struct.duckdb_zstd::ZSTD_inBuffer_s", ptr %13, i32 0, i32 2
  %32 = load i64, ptr %31, align 8, !tbaa !40
  %33 = load ptr, ptr %10, align 8, !tbaa !32
  store i64 %32, ptr %33, align 8, !tbaa !10
  %34 = load i64, ptr %11, align 8, !tbaa !10
  call void @llvm.lifetime.end.p0(i64 24, ptr %13) #5
  call void @llvm.lifetime.end.p0(i64 24, ptr %12) #5
  call void @llvm.lifetime.end.p0(i64 8, ptr %11) #5
  ret i64 %34
}