; Function Attrs: mustprogress uwtable
define noundef i64 @_ZN11duckdb_zstd22ZBUFF_compressContinueEPNS_11ZSTD_CCtx_sEPvPmPKvS3_(ptr noundef %0, ptr noundef %1, ptr noundef captures(none) %2, ptr noundef %3, ptr noundef captures(none) %4) local_unnamed_addr #0 {
  %6 = alloca %"struct.duckdb_zstd::ZSTD_outBuffer_s", align 8
  %7 = alloca %"struct.duckdb_zstd::ZSTD_inBuffer_s", align 8
  call void @llvm.lifetime.start.p0(i64 24, ptr nonnull %6) #3
  call void @llvm.lifetime.start.p0(i64 24, ptr nonnull %7) #3
  store ptr %1, ptr %6, align 8, !tbaa !20
  %8 = getelementptr inbounds nuw i8, ptr %6, i64 16
  store i64 0, ptr %8, align 8, !tbaa !24
  %9 = load i64, ptr %2, align 8, !tbaa !25
  %10 = getelementptr inbounds nuw i8, ptr %6, i64 8
  store i64 %9, ptr %10, align 8, !tbaa !26
  store ptr %3, ptr %7, align 8, !tbaa !27
  %11 = getelementptr inbounds nuw i8, ptr %7, i64 16
  store i64 0, ptr %11, align 8, !tbaa !29
  %12 = load i64, ptr %4, align 8, !tbaa !25
  %13 = getelementptr inbounds nuw i8, ptr %7, i64 8
  store i64 %12, ptr %13, align 8, !tbaa !30
  %14 = call noundef i64 @_ZN11duckdb_zstd19ZSTD_compressStreamEPNS_11ZSTD_CCtx_sEPNS_16ZSTD_outBuffer_sEPNS_15ZSTD_inBuffer_sE(ptr noundef %0, ptr noundef nonnull %6, ptr noundef nonnull %7)
  %15 = load i64, ptr %8, align 8, !tbaa !24
  store i64 %15, ptr %2, align 8, !tbaa !25
  %16 = load i64, ptr %11, align 8, !tbaa !29
  store i64 %16, ptr %4, align 8, !tbaa !25
  call void @llvm.lifetime.end.p0(i64 24, ptr nonnull %7) #3
  call void @llvm.lifetime.end.p0(i64 24, ptr nonnull %6) #3
  ret i64 %14
}